Certificate:
    Data:
        Version: 1 (0x0)
        Serial Number: 40 (0x28)
    Signature Algorithm: sha256WithRSAEncryption
        Issuer: O=NOVA ROOT, L=Mountain View, ST=California, C=US
        Validity
            Not Before: Apr 20 03:51:38 2017 GMT
            Not After : Apr 20 03:51:38 2018 GMT
        Subject: C=US, O=OpenStack, CN=0fd3199ffe524833-fa8f13e7266348bb-2017-04-20T03:51:38Z
        Subject Public Key Info:
            Public Key Algorithm: rsaEncryption
                Public-Key: (2048 bit)
                Modulus:
                    00:ef:34:ab:b7:75:31:d8:60:b2:3e:3c:24:bb:b4:
                    58:79:fd:ae:89:25:a8:04:50:c1:37:bd:70:12:ef:
                    00:d3:45:f3:da:b2:52:23:02:e5:2a:b0:9c:f2:93:
                    b6:6b:43:31:5c:53:35:96:b5:f7:a0:79:ab:e7:89:
                    a2:9f:b3:db:dd:40:45:50:6b:c5:5f:f8:d2:75:76:
                    61:cb:48:94:e9:73:ca:00:a9:15:ad:04:a0:2b:fb:
                    71:dd:1f:d8:93:6b:3c:d4:b8:e0:24:db:71:7c:c3:
                    d1:89:7b:dc:0b:29:af:f6:99:12:cc:39:45:8f:a5:
                    ed:a1:c9:ce:cd:a0:31:29:ec:00:2c:33:af:54:cc:
                    1e:f2:63:26:79:49:1d:85:0a:e2:22:27:4c:47:bb:
                    20:5f:30:00:1b:1c:89:bf:83:d9:f4:23:1d:51:9a:
                    da:0a:7c:0a:01:ca:09:ec:e4:d4:79:5d:0d:b2:57:
                    28:b6:50:e7:86:30:f6:2f:30:7e:32:1a:fe:b7:a7:
                    8b:7f:ca:e8:77:a0:dc:35:8d:7f:ac:8e:2b:d2:d8:
                    e9:bd:0a:d8:c9:91:61:72:1a:36:33:f5:cf:57:87:
                    73:d8:d0:ee:7b:b9:3b:88:da:5a:11:23:e4:e8:24:
                    77:b4:b2:30:da:46:39:a1:ec:57:4a:c2:70:a5:7d:
                    4b:1b
                Exponent: 65537 (0x10001)
    Signature Algorithm: sha256WithRSAEncryption
         58:64:e4:ce:a8:35:de:b9:a5:0d:c7:92:42:7c:22:6c:b3:e1:
         93:46:f5:68:55:7c:66:e1:2b:f1:b1:bc:86:2c:86:bf:dd:32:
         ba:04:8a:21:15:94:5b:98:0b:f0:43:29:a2:90:69:e9:f4:4c:
         23:77:91:57:86:55:07:e6:1f:08:59:27:ef:b3:d4:80:66:59:
         41:18:80:5e:f5:e7:89:0b:28:29:7a:09:2a:8d:b8:d6:27:5b:
         9d:68:1e:a5:64:4a:4f:8d:f0:05:cf:1e:4d:ee:1c:50:62:87:
         75:b3:35:90:5e:63:c8:8b:a9:37:d2:71:26:37:a6:79:84:37:
         cc:f8
-----BEGIN CERTIFICATE-----
MIICozCCAgwCASgwDQYJKoZIhvcNAQELBQAwTjESMBAGA1UEChMJTk9WQSBST09U
MRYwFAYDVQQHEw1Nb3VudGFpbiBWaWV3MRMwEQYDVQQIEwpDYWxpZm9ybmlhMQsw
CQYDVQQGEwJVUzAeFw0xNzA0MjAwMzUxMzhaFw0xODA0MjAwMzUxMzhaMGIxCzAJ
BgNVBAYTAlVTMRIwEAYDVQQKDAlPcGVuU3RhY2sxPzA9BgNVBAMMNjBmZDMxOTlm
ZmU1MjQ4MzMtZmE4ZjEzZTcyNjYzNDhiYi0yMDE3LTA0LTIwVDAzOjUxOjM4WjCC
ASIwDQYJKoZIhvcNAQEBBQADggEPADCCAQoCggEBAO80q7d1Mdhgsj48JLu0WHn9
roklqARQwTe9cBLvANNF89qyUiMC5SqwnPKTtmtDMVxTNZa196B5q+eJop+z291A
RVBrxV/40nV2YctIlOlzygCpFa0EoCv7cd0f2JNrPNS44CTbcXzD0Yl73Aspr/aZ
Esw5RY+l7aHJzs2gMSnsACwzr1TMHvJjJnlJHYUK4iInTEe7IF8wABscib+D2fQj
HVGa2gp8CgHKCezk1HldDbJXKLZQ54Yw9i8wfjIa/reni3/K6Heg3DWNf6yOK9LY
6b0K2MmRYXIaNjP1z1eHc9jQ7nu5O4jaWhEj5Ogkd7SyMNpGOaHsV0rCcKV9SxsC
AwEAATANBgkqhkiG9w0BAQsFAAOBgQBYZOTOqDXeuaUNx5JCfCJss+GTRvVoVXxm
4SvxsbyGLIa/3TK6BIohFZRbmAvwQymikGnp9Ewjd5FXhlUH5h8IWSfvs9SAZllB
GIBe9eeJCygpegkqjbjWJ1udaB6lZEpPjfAFzx5N7hxQYod1szWQXmPIi6k30nEm
N6Z5hDfM+A==
-----END CERTIFICATE-----
